; Function Attrs: nounwind uwtable
define range(i32 0, 2) i32 @EVP_PKEY_set1_DSA(ptr noundef %0, ptr noundef %1) local_unnamed_addr #0 {
  %3 = tail call i32 @EVP_PKEY_assign(ptr noundef %0, i32 noundef 116, ptr noundef %1)
  %.not = icmp eq i32 %3, 0
  br i1 %.not, label %6, label %4

4:                                                ; preds = %2
  %5 = tail call i32 @DSA_up_ref(ptr noundef %1) #12
  br label %6

6:                                                ; preds = %4, %2
  ret i32 %3
}